target datalayout = "e-m:e-p270:32:32-p271:32:32-p272:64:64-i64:64-i128:128-f80:128-n8:16:32:64-S128"
target triple = "x86_64-pc-linux-gnu"

@.str = private unnamed_addr constant [32 x i8] c"../openssl/crypto/dh/dh_check.c\00", align 1
@__func__.DH_check_params_ex = private unnamed_addr constant [19 x i8] c"DH_check_params_ex\00", align 1

; Function Attrs: nounwind uwtable
define i32 @DH_check_params_ex(ptr noundef %0) #0 {
  %2 = alloca i32, align 4
  %3 = alloca ptr, align 8
  %4 = alloca i32, align 4
  %5 = alloca i32, align 4
  store ptr %0, ptr %3, align 8, !tbaa !3
  call void @llvm.lifetime.start.p0(i64 4, ptr %4) #3
  store i32 0, ptr %4, align 4, !tbaa !8
  %6 = load ptr, ptr %3, align 8, !tbaa !3
  %7 = call i32 @DH_check_params(ptr noundef %6, ptr noundef %4)
  %8 = icmp ne i32 %7, 0
  br i1 %8, label %10, label %9

9:                                                ; preds = %1
  store i32 0, ptr %2, align 4
  store i32 1, ptr %5, align 4
  br label %34

10:                                               ; preds = %1
  %11 = load i32, ptr %4, align 4, !tbaa !8
  %12 = and i32 %11, 1
  %13 = icmp ne i32 %12, 0
  br i1 %13, label %14, label %15

14:                                               ; preds = %10
  call void @ERR_new()
  call void @ERR_set_debug(ptr noundef @.str, i32 noundef 36, ptr noundef @__func__.DH_check_params_ex)
  call void (i32, i32, ptr, ...) @ERR_set_error(i32 noundef 5, i32 noundef 117, ptr noundef null)
  br label %15

15:                                               ; preds = %14, %10
  %16 = load i32, ptr %4, align 4, !tbaa !8
  %17 = and i32 %16, 8
  %18 = icmp ne i32 %17, 0
  br i1 %18, label %19, label %20

19:                                               ; preds = %15
  call void @ERR_new()
  call void @ERR_set_debug(ptr noundef @.str, i32 noundef 38, ptr noundef @__func__.DH_check_params_ex)
  call void (i32, i32, ptr, ...) @ERR_set_error(i32 noundef 5, i32 noundef 120, ptr noundef null)
  br label %20

20:                                               ; preds = %19, %15
  %21 = load i32, ptr %4, align 4, !tbaa !8
  %22 = and i32 %21, 128
  %23 = icmp ne i32 %22, 0
  br i1 %23, label %24, label %25

24:                                               ; preds = %20
  call void @ERR_new()
  call void @ERR_set_debug(ptr noundef @.str, i32 noundef 40, ptr noundef @__func__.DH_check_params_ex)
  call void (i32, i32, ptr, ...) @ERR_set_error(i32 noundef 5, i32 noundef 126, ptr noundef null)
  br label %25

25:                                               ; preds = %24, %20
  %26 = load i32, ptr %4, align 4, !tbaa !8
  %27 = and i32 %26, 256
  %28 = icmp ne i32 %27, 0
  br i1 %28, label %29, label %30

29:                                               ; preds = %25
  call void @ERR_new()
  call void @ERR_set_debug(ptr noundef @.str, i32 noundef 42, ptr noundef @__func__.DH_check_params_ex)
  call void (i32, i32, ptr, ...) @ERR_set_error(i32 noundef 5, i32 noundef 103, ptr noundef null)
  br label %30

30:                                               ; preds = %29, %25
  %31 = load i32, ptr %4, align 4, !tbaa !8
  %32 = icmp eq i32 %31, 0
  %33 = zext i1 %32 to i32
  store i32 %33, ptr %2, align 4
  store i32 1, ptr %5, align 4
  br label %34

34:                                               ; preds = %30, %9
  call void @llvm.lifetime.end.p0(i64 4, ptr %4) #3
  %35 = load i32, ptr %2, align 4
  ret i32 %35
}