; Function Attrs: nounwind uwtable
define range(i32 0, 2) i32 @DH_check_params_ex(ptr noundef readonly captures(none) %0) local_unnamed_addr #0 {
  %2 = alloca i32, align 4
  call void @llvm.lifetime.start.p0(i64 4, ptr nonnull %2) #3
  %3 = call i32 @DH_check_params(ptr noundef %0, ptr noundef nonnull %2)
  %.not = icmp eq i32 %3, 0
  br i1 %.not, label %20, label %4

4:                                                ; preds = %1
  %5 = load i32, ptr %2, align 4, !tbaa !3
  %6 = and i32 %5, 1
  %.not1 = icmp eq i32 %6, 0
  br i1 %.not1, label %8, label %7

7:                                                ; preds = %4
  tail call void @ERR_new() #3
  tail call void @ERR_set_debug(ptr noundef nonnull @.str, i32 noundef 36, ptr noundef nonnull @__func__.DH_check_params_ex) #3
  tail call void (i32, i32, ptr, ...) @ERR_set_error(i32 noundef 5, i32 noundef 117, ptr noundef null) #3
  br label %8

8:                                                ; preds = %7, %4
  %9 = and i32 %5, 8
  %.not2 = icmp eq i32 %9, 0
  br i1 %.not2, label %11, label %10

10:                                               ; preds = %8
  tail call void @ERR_new() #3
  tail call void @ERR_set_debug(ptr noundef nonnull @.str, i32 noundef 38, ptr noundef nonnull @__func__.DH_check_params_ex) #3
  tail call void (i32, i32, ptr, ...) @ERR_set_error(i32 noundef 5, i32 noundef 120, ptr noundef null) #3
  br label %11

11:                                               ; preds = %10, %8
  %12 = and i32 %5, 128
  %.not3 = icmp eq i32 %12, 0
  br i1 %.not3, label %14, label %13

13:                                               ; preds = %11
  tail call void @ERR_new() #3
  tail call void @ERR_set_debug(ptr noundef nonnull @.str, i32 noundef 40, ptr noundef nonnull @__func__.DH_check_params_ex) #3
  tail call void (i32, i32, ptr, ...) @ERR_set_error(i32 noundef 5, i32 noundef 126, ptr noundef null) #3
  br label %14

14:                                               ; preds = %13, %11
  %15 = and i32 %5, 256
  %.not4 = icmp eq i32 %15, 0
  br i1 %.not4, label %17, label %16

16:                                               ; preds = %14
  tail call void @ERR_new() #3
  tail call void @ERR_set_debug(ptr noundef nonnull @.str, i32 noundef 42, ptr noundef nonnull @__func__.DH_check_params_ex) #3
  tail call void (i32, i32, ptr, ...) @ERR_set_error(i32 noundef 5, i32 noundef 103, ptr noundef null) #3
  br label %17

17:                                               ; preds = %16, %14
  %18 = icmp eq i32 %5, 0
  %19 = zext i1 %18 to i32
  br label %20

20:                                               ; preds = %1, %17
  %.0 = phi i32 [ %19, %17 ], [ 0, %1 ]
  call void @llvm.lifetime.end.p0(i64 4, ptr nonnull %2) #3
  ret i32 %.0
}